target datalayout = "e-m:e-p270:32:32-p271:32:32-p272:64:64-i64:64-i128:128-f80:128-n8:16:32:64-S128"
target triple = "x86_64-pc-linux-gnu"

%struct.bio_ssl_st = type { ptr, i32, i64, i64, i64, i64 }

; Function Attrs: nounwind uwtable
define internal i32 @ssl_write(ptr noundef %0, ptr noundef %1, i64 noundef %2, ptr noundef %3) #0 {
  %5 = alloca i32, align 4
  %6 = alloca ptr, align 8
  %7 = alloca ptr, align 8
  %8 = alloca i64, align 8
  %9 = alloca ptr, align 8
  %10 = alloca i32, align 4
  %11 = alloca i32, align 4
  %12 = alloca i32, align 4
  %13 = alloca ptr, align 8
  %14 = alloca ptr, align 8
  %15 = alloca i32, align 4
  %16 = alloca i64, align 8
  store ptr %0, ptr %6, align 8, !tbaa !8
  store ptr %1, ptr %7, align 8, !tbaa !56
  store i64 %2, ptr %8, align 8, !tbaa !57
  store ptr %3, ptr %9, align 8, !tbaa !58
  call void @llvm.lifetime.start.p0(i64 4, ptr %10) #5
  call void @llvm.lifetime.start.p0(i64 4, ptr %11) #5
  store i32 0, ptr %11, align 4, !tbaa !47
  call void @llvm.lifetime.start.p0(i64 4, ptr %12) #5
  store i32 0, ptr %12, align 4, !tbaa !47
  call void @llvm.lifetime.start.p0(i64 8, ptr %13) #5
  call void @llvm.lifetime.start.p0(i64 8, ptr %14) #5
  %17 = load ptr, ptr %7, align 8, !tbaa !56
  %18 = icmp eq ptr %17, null
  br i1 %18, label %19, label %20

19:                                               ; preds = %4
  store i32 0, ptr %5, align 4
  store i32 1, ptr %15, align 4
  br label %109

20:                                               ; preds = %4
  %21 = load ptr, ptr %6, align 8, !tbaa !8
  %22 = call ptr @BIO_get_data(ptr noundef %21)
  store ptr %22, ptr %14, align 8, !tbaa !50
  %23 = load ptr, ptr %14, align 8, !tbaa !50
  %24 = getelementptr inbounds nuw %struct.bio_ssl_st, ptr %23, i32 0, i32 0
  %25 = load ptr, ptr %24, align 8, !tbaa !52
  store ptr %25, ptr %13, align 8, !tbaa !48
  %26 = load ptr, ptr %6, align 8, !tbaa !8
  call void @BIO_clear_flags(ptr noundef %26, i32 noundef 15)
  %27 = load ptr, ptr %13, align 8, !tbaa !48
  %28 = load ptr, ptr %7, align 8, !tbaa !56
  %29 = load i64, ptr %8, align 8, !tbaa !57
  %30 = load ptr, ptr %9, align 8, !tbaa !58
  %31 = call i32 @ssl_write_internal(ptr noundef %27, ptr noundef %28, i64 noundef %29, i64 noundef 0, ptr noundef %30)
  store i32 %31, ptr %10, align 4, !tbaa !47
  %32 = load ptr, ptr %13, align 8, !tbaa !48
  %33 = load i32, ptr %10, align 4, !tbaa !47
  %34 = call i32 @SSL_get_error(ptr noundef %32, i32 noundef %33)
  switch i32 %34, label %104 [
    i32 0, label %35
    i32 3, label %95
    i32 2, label %97
    i32 4, label %99
    i32 7, label %101
    i32 5, label %103
    i32 1, label %103
  ]

35:                                               ; preds = %20
  %36 = load ptr, ptr %14, align 8, !tbaa !50
  %37 = getelementptr inbounds nuw %struct.bio_ssl_st, ptr %36, i32 0, i32 2
  %38 = load i64, ptr %37, align 8, !tbaa !59
  %39 = icmp ugt i64 %38, 0
  br i1 %39, label %40, label %64

40:                                               ; preds = %35
  %41 = load ptr, ptr %9, align 8, !tbaa !58
  %42 = load i64, ptr %41, align 8, !tbaa !57
  %43 = load ptr, ptr %14, align 8, !tbaa !50
  %44 = getelementptr inbounds nuw %struct.bio_ssl_st, ptr %43, i32 0, i32 3
  %45 = load i64, ptr %44, align 8, !tbaa !60
  %46 = add i64 %45, %42
  store i64 %46, ptr %44, align 8, !tbaa !60
  %47 = load ptr, ptr %14, align 8, !tbaa !50
  %48 = getelementptr inbounds nuw %struct.bio_ssl_st, ptr %47, i32 0, i32 3
  %49 = load i64, ptr %48, align 8, !tbaa !60
  %50 = load ptr, ptr %14, align 8, !tbaa !50
  %51 = getelementptr inbounds nuw %struct.bio_ssl_st, ptr %50, i32 0, i32 2
  %52 = load i64, ptr %51, align 8, !tbaa !59
  %53 = icmp ugt i64 %49, %52
  br i1 %53, label %54, label %63

54:                                               ; preds = %40
  %55 = load ptr, ptr %14, align 8, !tbaa !50
  %56 = getelementptr inbounds nuw %struct.bio_ssl_st, ptr %55, i32 0, i32 3
  store i64 0, ptr %56, align 8, !tbaa !60
  %57 = load ptr, ptr %14, align 8, !tbaa !50
  %58 = getelementptr inbounds nuw %struct.bio_ssl_st, ptr %57, i32 0, i32 1
  %59 = load i32, ptr %58, align 8, !tbaa !61
  %60 = add nsw i32 %59, 1
  store i32 %60, ptr %58, align 8, !tbaa !61
  %61 = load ptr, ptr %13, align 8, !tbaa !48
  %62 = call i32 @SSL_renegotiate(ptr noundef %61)
  store i32 1, ptr %11, align 4, !tbaa !47
  br label %63

63:                                               ; preds = %54, %40
  br label %64

64:                                               ; preds = %63, %35
  %65 = load ptr, ptr %14, align 8, !tbaa !50
  %66 = getelementptr inbounds nuw %struct.bio_ssl_st, ptr %65, i32 0, i32 4
  %67 = load i64, ptr %66, align 8, !tbaa !62
  %68 = icmp ugt i64 %67, 0
  br i1 %68, label %69, label %94

69:                                               ; preds = %64
  %70 = load i32, ptr %11, align 4, !tbaa !47
  %71 = icmp ne i32 %70, 0
  br i1 %71, label %94, label %72

72:                                               ; preds = %69
  call void @llvm.lifetime.start.p0(i64 8, ptr %16) #5
  %73 = call i64 @time(ptr noundef null) #5
  store i64 %73, ptr %16, align 8, !tbaa !57
  %74 = load i64, ptr %16, align 8, !tbaa !57
  %75 = load ptr, ptr %14, align 8, !tbaa !50
  %76 = getelementptr inbounds nuw %struct.bio_ssl_st, ptr %75, i32 0, i32 5
  %77 = load i64, ptr %76, align 8, !tbaa !63
  %78 = load ptr, ptr %14, align 8, !tbaa !50
  %79 = getelementptr inbounds nuw %struct.bio_ssl_st, ptr %78, i32 0, i32 4
  %80 = load i64, ptr %79, align 8, !tbaa !62
  %81 = add i64 %77, %80
  %82 = icmp ugt i64 %74, %81
  br i1 %82, label %83, label %93

83:                                               ; preds = %72
  %84 = load i64, ptr %16, align 8, !tbaa !57
  %85 = load ptr, ptr %14, align 8, !tbaa !50
  %86 = getelementptr inbounds nuw %struct.bio_ssl_st, ptr %85, i32 0, i32 5
  store i64 %84, ptr %86, align 8, !tbaa !63
  %87 = load ptr, ptr %14, align 8, !tbaa !50
  %88 = getelementptr inbounds nuw %struct.bio_ssl_st, ptr %87, i32 0, i32 1
  %89 = load i32, ptr %88, align 8, !tbaa !61
  %90 = add nsw i32 %89, 1
  store i32 %90, ptr %88, align 8, !tbaa !61
  %91 = load ptr, ptr %13, align 8, !tbaa !48
  %92 = call i32 @SSL_renegotiate(ptr noundef %91)
  br label %93

93:                                               ; preds = %83, %72
  call void @llvm.lifetime.end.p0(i64 8, ptr %16) #5
  br label %94

94:                                               ; preds = %93, %69, %64
  br label %105

95:                                               ; preds = %20
  %96 = load ptr, ptr %6, align 8, !tbaa !8
  call void @BIO_set_flags(ptr noundef %96, i32 noundef 10)
  br label %105

97:                                               ; preds = %20
  %98 = load ptr, ptr %6, align 8, !tbaa !8
  call void @BIO_set_flags(ptr noundef %98, i32 noundef 9)
  br label %105

99:                                               ; preds = %20
  %100 = load ptr, ptr %6, align 8, !tbaa !8
  call void @BIO_set_flags(ptr noundef %100, i32 noundef 12)
  store i32 1, ptr %12, align 4, !tbaa !47
  br label %105

101:                                              ; preds = %20
  %102 = load ptr, ptr %6, align 8, !tbaa !8
  call void @BIO_set_flags(ptr noundef %102, i32 noundef 12)
  store i32 2, ptr %12, align 4, !tbaa !47
  br label %103

103:                                              ; preds = %20, %20, %101
  br label %104

104:                                              ; preds = %20, %103
  br label %105

105:                                              ; preds = %104, %99, %97, %95, %94
  %106 = load ptr, ptr %6, align 8, !tbaa !8
  %107 = load i32, ptr %12, align 4, !tbaa !47
  call void @BIO_set_retry_reason(ptr noundef %106, i32 noundef %107)
  %108 = load i32, ptr %10, align 4, !tbaa !47
  store i32 %108, ptr %5, align 4
  store i32 1, ptr %15, align 4
  br label %109

109:                                              ; preds = %105, %19
  call void @llvm.lifetime.end.p0(i64 8, ptr %14) #5
  call void @llvm.lifetime.end.p0(i64 8, ptr %13) #5
  call void @llvm.lifetime.end.p0(i64 4, ptr %12) #5
  call void @llvm.lifetime.end.p0(i64 4, ptr %11) #5
  call void @llvm.lifetime.end.p0(i64 4, ptr %10) #5
  %110 = load i32, ptr %5, align 4
  ret i32 %110
}