; Function Attrs: nounwind uwtable
define internal noundef i32 @ssl_write(ptr noundef %0, ptr noundef %1, i64 noundef %2, ptr noundef %3) #1 {
  %5 = icmp eq ptr %1, null
  br i1 %5, label %45, label %6

6:                                                ; preds = %4
  %7 = tail call ptr @BIO_get_data(ptr noundef %0) #5
  %8 = load ptr, ptr %7, align 8, !tbaa !43
  tail call void @BIO_clear_flags(ptr noundef %0, i32 noundef 15) #5
  %9 = tail call i32 @ssl_write_internal(ptr noundef %8, ptr noundef nonnull %1, i64 noundef %2, i64 noundef 0, ptr noundef %3) #5
  %10 = tail call i32 @SSL_get_error(ptr noundef %8, i32 noundef %9) #5
  switch i32 %10, label %44 [
    i32 0, label %11
    i32 3, label %40
    i32 2, label %41
    i32 4, label %42
    i32 7, label %43
  ]

11:                                               ; preds = %6
  %12 = getelementptr inbounds nuw i8, ptr %7, i64 16
  %13 = load i64, ptr %12, align 8, !tbaa !48
  %.not = icmp eq i64 %13, 0
  br i1 %.not, label %24, label %14

14:                                               ; preds = %11
  %15 = load i64, ptr %3, align 8, !tbaa !49
  %16 = getelementptr inbounds nuw i8, ptr %7, i64 24
  %17 = load i64, ptr %16, align 8, !tbaa !50
  %18 = add i64 %17, %15
  store i64 %18, ptr %16, align 8, !tbaa !50
  %19 = icmp ugt i64 %18, %13
  br i1 %19, label %.thread, label %24

.thread:                                          ; preds = %14
  store i64 0, ptr %16, align 8, !tbaa !50
  %20 = getelementptr inbounds nuw i8, ptr %7, i64 8
  %21 = load i32, ptr %20, align 8, !tbaa !51
  %22 = add nsw i32 %21, 1
  store i32 %22, ptr %20, align 8, !tbaa !51
  %23 = tail call i32 @SSL_renegotiate(ptr noundef %8) #5
  br label %44

24:                                               ; preds = %14, %11
  %25 = getelementptr inbounds nuw i8, ptr %7, i64 32
  %26 = load i64, ptr %25, align 8, !tbaa !52
  %27 = icmp eq i64 %26, 0
  br i1 %27, label %44, label %28

28:                                               ; preds = %24
  %29 = tail call i64 @time(ptr noundef null) #5
  %30 = getelementptr inbounds nuw i8, ptr %7, i64 40
  %31 = load i64, ptr %30, align 8, !tbaa !53
  %32 = load i64, ptr %25, align 8, !tbaa !52
  %33 = add i64 %32, %31
  %34 = icmp ugt i64 %29, %33
  br i1 %34, label %35, label %44

35:                                               ; preds = %28
  store i64 %29, ptr %30, align 8, !tbaa !53
  %36 = getelementptr inbounds nuw i8, ptr %7, i64 8
  %37 = load i32, ptr %36, align 8, !tbaa !51
  %38 = add nsw i32 %37, 1
  store i32 %38, ptr %36, align 8, !tbaa !51
  %39 = tail call i32 @SSL_renegotiate(ptr noundef %8) #5
  br label %44

40:                                               ; preds = %6
  tail call void @BIO_set_flags(ptr noundef %0, i32 noundef 10) #5
  br label %44

41:                                               ; preds = %6
  tail call void @BIO_set_flags(ptr noundef %0, i32 noundef 9) #5
  br label %44

42:                                               ; preds = %6
  tail call void @BIO_set_flags(ptr noundef %0, i32 noundef 12) #5
  br label %44

43:                                               ; preds = %6
  tail call void @BIO_set_flags(ptr noundef %0, i32 noundef 12) #5
  br label %44

44:                                               ; preds = %.thread, %28, %35, %6, %43, %24, %42, %41, %40
  %.036 = phi i32 [ 0, %6 ], [ 2, %43 ], [ 1, %42 ], [ 0, %41 ], [ 0, %40 ], [ 0, %24 ], [ 0, %35 ], [ 0, %28 ], [ 0, %.thread ]
  tail call void @BIO_set_retry_reason(ptr noundef %0, i32 noundef %.036) #5
  br label %45

45:                                               ; preds = %4, %44
  %.0 = phi i32 [ %9, %44 ], [ 0, %4 ]
  ret i32 %.0
}